target datalayout = "e-m:e-p270:32:32-p271:32:32-p272:64:64-i64:64-i128:128-f80:128-n8:16:32:64-S128"
target triple = "x86_64-pc-linux-gnu"

%"struct.std::pair.2" = type <{ ptr, i32, [4 x i8] }>

; Function Attrs: mustprogress nounwind uwtable
define linkonce_odr hidden void @_ZNSt4pairIPKcjEC2IDniTnNSt9enable_ifIXaaclsr5_PCCPE22_MoveConstructiblePairIT_T0_EEclsr5_PCCPE30_ImplicitlyMoveConvertiblePairIS5_S6_EEEbE4typeELb1EEEOS5_OS6_(ptr noundef nonnull align 8 dereferenceable(12) %0, ptr noundef nonnull align 8 dereferenceable(8) %1, ptr noundef nonnull align 4 dereferenceable(4) %2) unnamed_addr #7 comdat align 2 {
  %4 = alloca ptr, align 8
  %5 = alloca ptr, align 8
  %6 = alloca ptr, align 8
  store ptr %0, ptr %4, align 8, !tbaa !100
  store ptr %1, ptr %5, align 8, !tbaa !45
  store ptr %2, ptr %6, align 8, !tbaa !29
  %7 = load ptr, ptr %4, align 8
  %8 = getelementptr inbounds nuw %"struct.std::pair.2", ptr %7, i32 0, i32 0
  store ptr null, ptr %8, align 8, !tbaa !102
  %9 = getelementptr inbounds nuw %"struct.std::pair.2", ptr %7, i32 0, i32 1
  %10 = load ptr, ptr %6, align 8, !tbaa !29
  %11 = load i32, ptr %10, align 4, !tbaa !19
  store i32 %11, ptr %9, align 8, !tbaa !104
  ret void
}

; Function Attrs: mustprogress nounwind uwtable
define linkonce_odr hidden void @_ZNSt4pairIPKcjEC2IS1_RjTnNSt9enable_ifIXaaclsr5_PCCPE22_MoveConstructiblePairIT_T0_EEclsr5_PCCPE30_ImplicitlyMoveConvertiblePairIS6_S7_EEEbE4typeELb1EEEOS6_OS7_(ptr noundef nonnull align 8 dereferenceable(12) %0, ptr noundef nonnull align 8 dereferenceable(8) %1, ptr noundef nonnull align 4 dereferenceable(4) %2) unnamed_addr #7 comdat align 2 {
  %4 = alloca ptr, align 8
  %5 = alloca ptr, align 8
  %6 = alloca ptr, align 8
  store ptr %0, ptr %4, align 8, !tbaa !100
  store ptr %1, ptr %5, align 8, !tbaa !54
  store ptr %2, ptr %6, align 8, !tbaa !29
  %7 = load ptr, ptr %4, align 8
  %8 = getelementptr inbounds nuw %"struct.std::pair.2", ptr %7, i32 0, i32 0
  %9 = load ptr, ptr %5, align 8, !tbaa !54
  %10 = load ptr, ptr %9, align 8, !tbaa !16
  store ptr %10, ptr %8, align 8, !tbaa !102
  %11 = getelementptr inbounds nuw %"struct.std::pair.2", ptr %7, i32 0, i32 1
  %12 = load ptr, ptr %6, align 8, !tbaa !29
  %13 = load i32, ptr %12, align 4, !tbaa !19
  store i32 %13, ptr %11, align 8, !tbaa !104
  ret void
}

; Function Attrs: mustprogress uwtable
define hidden { ptr, i32 } @_ZN6google8protobuf8internal17VarintParseSlow32EPKcj(ptr noundef %0, i32 noundef %1) #4 {
  %3 = alloca %"struct.std::pair.2", align 8
  %4 = alloca ptr, align 8
  %5 = alloca i32, align 4
  %6 = alloca i32, align 4
  %7 = alloca i32, align 4
  %8 = alloca i32, align 4
  %9 = alloca ptr, align 8
  %10 = alloca i32, align 4
  %11 = alloca i32, align 4
  %12 = alloca ptr, align 8
  %13 = alloca ptr, align 8
  %14 = alloca i32, align 4
  store ptr %0, ptr %4, align 8, !tbaa !16
  store i32 %1, ptr %5, align 4, !tbaa !19
  call void @llvm.lifetime.start.p0(i64 4, ptr %6) #3
  store i32 2, ptr %6, align 4, !tbaa !19
  br label %15

15:                                               ; preds = %48, %2
  %16 = load i32, ptr %6, align 4, !tbaa !19
  %17 = icmp ult i32 %16, 5
  br i1 %17, label %19, label %18

18:                                               ; preds = %15
  store i32 2, ptr %7, align 4
  br label %51

19:                                               ; preds = %15
  call void @llvm.lifetime.start.p0(i64 4, ptr %8) #3
  %20 = load ptr, ptr %4, align 8, !tbaa !16
  %21 = load i32, ptr %6, align 4, !tbaa !19
  %22 = zext i32 %21 to i64
  %23 = getelementptr inbounds nuw i8, ptr %20, i64 %22
  %24 = load i8, ptr %23, align 1, !tbaa !85
  %25 = zext i8 %24 to i32
  store i32 %25, ptr %8, align 4, !tbaa !19
  %26 = load i32, ptr %8, align 4, !tbaa !19
  %27 = sub i32 %26, 1
  %28 = load i32, ptr %6, align 4, !tbaa !19
  %29 = mul i32 7, %28
  %30 = shl i32 %27, %29
  %31 = load i32, ptr %5, align 4, !tbaa !19
  %32 = add i32 %31, %30
  store i32 %32, ptr %5, align 4, !tbaa !19
  %33 = load i32, ptr %8, align 4, !tbaa !19
  %34 = icmp ult i32 %33, 128
  %35 = zext i1 %34 to i64
  %36 = call i64 @llvm.expect.i64(i64 %35, i64 1)
  %37 = icmp ne i64 %36, 0
  br i1 %37, label %38, label %44

38:                                               ; preds = %19
  call void @llvm.lifetime.start.p0(i64 8, ptr %9) #3
  %39 = load ptr, ptr %4, align 8, !tbaa !16
  %40 = load i32, ptr %6, align 4, !tbaa !19
  %41 = zext i32 %40 to i64
  %42 = getelementptr inbounds nuw i8, ptr %39, i64 %41
  %43 = getelementptr inbounds i8, ptr %42, i64 1
  store ptr %43, ptr %9, align 8, !tbaa !16
  call void @_ZNSt4pairIPKcjEC2IS1_RjTnNSt9enable_ifIXaaclsr5_PCCPE22_MoveConstructiblePairIT_T0_EEclsr5_PCCPE30_ImplicitlyMoveConvertiblePairIS6_S7_EEEbE4typeELb1EEEOS6_OS7_(ptr noundef nonnull align 8 dereferenceable(12) %3, ptr noundef nonnull align 8 dereferenceable(8) %9, ptr noundef nonnull align 4 dereferenceable(4) %5)
  call void @llvm.lifetime.end.p0(i64 8, ptr %9) #3
  store i32 1, ptr %7, align 4
  br label %45

44:                                               ; preds = %19
  store i32 0, ptr %7, align 4
  br label %45

45:                                               ; preds = %44, %38
  call void @llvm.lifetime.end.p0(i64 4, ptr %8) #3
  %46 = load i32, ptr %7, align 4
  switch i32 %46, label %51 [
    i32 0, label %47
  ]

47:                                               ; preds = %45
  br label %48

48:                                               ; preds = %47
  %49 = load i32, ptr %6, align 4, !tbaa !19
  %50 = add i32 %49, 1
  store i32 %50, ptr %6, align 4, !tbaa !19
  br label %15, !llvm.loop !98

51:                                               ; preds = %45, %18
  call void @llvm.lifetime.end.p0(i64 4, ptr %6) #3
  %52 = load i32, ptr %7, align 4
  switch i32 %52, label %88 [
    i32 2, label %53
    i32 1, label %86
  ]

53:                                               ; preds = %51
  call void @llvm.lifetime.start.p0(i64 4, ptr %10) #3
  store i32 5, ptr %10, align 4, !tbaa !19
  br label %54

54:                                               ; preds = %80, %53
  %55 = load i32, ptr %10, align 4, !tbaa !19
  %56 = icmp ult i32 %55, 10
  br i1 %56, label %58, label %57

57:                                               ; preds = %54
  store i32 5, ptr %7, align 4
  br label %83

58:                                               ; preds = %54
  call void @llvm.lifetime.start.p0(i64 4, ptr %11) #3
  %59 = load ptr, ptr %4, align 8, !tbaa !16
  %60 = load i32, ptr %10, align 4, !tbaa !19
  %61 = zext i32 %60 to i64
  %62 = getelementptr inbounds nuw i8, ptr %59, i64 %61
  %63 = load i8, ptr %62, align 1, !tbaa !85
  %64 = zext i8 %63 to i32
  store i32 %64, ptr %11, align 4, !tbaa !19
  %65 = load i32, ptr %11, align 4, !tbaa !19
  %66 = icmp ult i32 %65, 128
  %67 = zext i1 %66 to i64
  %68 = call i64 @llvm.expect.i64(i64 %67, i64 1)
  %69 = icmp ne i64 %68, 0
  br i1 %69, label %70, label %76

70:                                               ; preds = %58
  call void @llvm.lifetime.start.p0(i64 8, ptr %12) #3
  %71 = load ptr, ptr %4, align 8, !tbaa !16
  %72 = load i32, ptr %10, align 4, !tbaa !19
  %73 = zext i32 %72 to i64
  %74 = getelementptr inbounds nuw i8, ptr %71, i64 %73
  %75 = getelementptr inbounds i8, ptr %74, i64 1
  store ptr %75, ptr %12, align 8, !tbaa !16
  call void @_ZNSt4pairIPKcjEC2IS1_RjTnNSt9enable_ifIXaaclsr5_PCCPE22_MoveConstructiblePairIT_T0_EEclsr5_PCCPE30_ImplicitlyMoveConvertiblePairIS6_S7_EEEbE4typeELb1EEEOS6_OS7_(ptr noundef nonnull align 8 dereferenceable(12) %3, ptr noundef nonnull align 8 dereferenceable(8) %12, ptr noundef nonnull align 4 dereferenceable(4) %5)
  call void @llvm.lifetime.end.p0(i64 8, ptr %12) #3
  store i32 1, ptr %7, align 4
  br label %77

76:                                               ; preds = %58
  store i32 0, ptr %7, align 4
  br label %77

77:                                               ; preds = %76, %70
  call void @llvm.lifetime.end.p0(i64 4, ptr %11) #3
  %78 = load i32, ptr %7, align 4
  switch i32 %78, label %83 [
    i32 0, label %79
  ]

79:                                               ; preds = %77
  br label %80

80:                                               ; preds = %79
  %81 = load i32, ptr %10, align 4, !tbaa !19
  %82 = add i32 %81, 1
  store i32 %82, ptr %10, align 4, !tbaa !19
  br label %54, !llvm.loop !99

83:                                               ; preds = %77, %57
  call void @llvm.lifetime.end.p0(i64 4, ptr %10) #3
  %84 = load i32, ptr %7, align 4
  switch i32 %84, label %88 [
    i32 5, label %85
    i32 1, label %86
  ]

85:                                               ; preds = %83
  call void @llvm.lifetime.start.p0(i64 8, ptr %13) #3
  store ptr null, ptr %13, align 8, !tbaa !31
  call void @llvm.lifetime.start.p0(i64 4, ptr %14) #3
  store i32 0, ptr %14, align 4, !tbaa !19
  call void @_ZNSt4pairIPKcjEC2IDniTnNSt9enable_ifIXaaclsr5_PCCPE22_MoveConstructiblePairIT_T0_EEclsr5_PCCPE30_ImplicitlyMoveConvertiblePairIS5_S6_EEEbE4typeELb1EEEOS5_OS6_(ptr noundef nonnull align 8 dereferenceable(12) %3, ptr noundef nonnull align 8 dereferenceable(8) %13, ptr noundef nonnull align 4 dereferenceable(4) %14)
  call void @llvm.lifetime.end.p0(i64 4, ptr %14) #3
  call void @llvm.lifetime.end.p0(i64 8, ptr %13) #3
  br label %86

86:                                               ; preds = %85, %83, %51
  %87 = load { ptr, i32 }, ptr %3, align 8
  ret { ptr, i32 } %87

88:                                               ; preds = %83, %51
  unreachable
}