; Function Attrs: mustprogress nofree norecurse nosync nounwind willreturn memory(argmem: read) uwtable
define hidden { ptr, i32 } @_ZN6google8protobuf8internal17VarintParseSlow32EPKcj(ptr noundef %0, i32 noundef %1) local_unnamed_addr #10 {
  br label %.critedge

3:                                                ; preds = %.critedge
  %indvars.iv.next = add nuw nsw i64 %indvars.iv, 1
  %exitcond.not = icmp eq i64 %indvars.iv.next, 5
  br i1 %exitcond.not, label %.critedge23, label %.critedge, !llvm.loop !49

.critedge:                                        ; preds = %2, %3
  %indvars.iv = phi i64 [ 2, %2 ], [ %indvars.iv.next, %3 ]
  %.03047 = phi i32 [ %1, %2 ], [ %11, %3 ]
  %4 = getelementptr inbounds nuw i8, ptr %0, i64 %indvars.iv
  %5 = load i8, ptr %4, align 1, !tbaa !25
  %6 = zext i8 %5 to i32
  %7 = add nsw i32 %6, -1
  %8 = trunc i64 %indvars.iv to i32
  %9 = mul i32 %8, 7
  %10 = shl i32 %7, %9
  %11 = add i32 %10, %.03047
  %12 = icmp slt i8 %5, 0
  br i1 %12, label %3, label %.thread, !prof !27

.thread:                                          ; preds = %.critedge
  %13 = getelementptr inbounds nuw i8, ptr %0, i64 %indvars.iv
  %14 = getelementptr inbounds nuw i8, ptr %13, i64 1
  br label %.loopexit

15:                                               ; preds = %.critedge23
  %indvars.iv.next58 = add nuw nsw i64 %indvars.iv57, 1
  %exitcond60.not = icmp eq i64 %indvars.iv.next58, 10
  br i1 %exitcond60.not, label %.loopexit, label %.critedge23, !llvm.loop !50

.critedge23:                                      ; preds = %3, %15
  %indvars.iv57 = phi i64 [ %indvars.iv.next58, %15 ], [ 5, %3 ]
  %16 = getelementptr inbounds nuw i8, ptr %0, i64 %indvars.iv57
  %17 = load i8, ptr %16, align 1, !tbaa !25
  %18 = icmp slt i8 %17, 0
  br i1 %18, label %15, label %19, !prof !27

19:                                               ; preds = %.critedge23
  %20 = getelementptr inbounds nuw i8, ptr %0, i64 %indvars.iv57
  %21 = getelementptr inbounds nuw i8, ptr %20, i64 1
  br label %.loopexit

.loopexit:                                        ; preds = %15, %19, %.thread
  %.sroa.0.1 = phi ptr [ %21, %19 ], [ %14, %.thread ], [ null, %15 ]
  %.sroa.4.1 = phi i32 [ %11, %19 ], [ %11, %.thread ], [ 0, %15 ]
  %.fca.0.insert = insertvalue { ptr, i32 } poison, ptr %.sroa.0.1, 0
  %.fca.1.insert = insertvalue { ptr, i32 } %.fca.0.insert, i32 %.sroa.4.1, 1
  ret { ptr, i32 } %.fca.1.insert
}